; ModuleID = '43/1751.c'
source_filename = "43/1751.c"
target datalayout = "e-m:e-p270:32:32-p271:32:32-p272:64:64-i64:64-f80:128-n8:16:32:64-S128"
target triple = "x86_64-pc-linux-gnu"

@.str = private unnamed_addr constant [3 x i8] c"%d\00", align 1
@.str.1 = private unnamed_addr constant [7 x i8] c"%d %d\0A\00", align 1

; Function Attrs: noinline nounwind uwtable
define dso_local i32 @main() #0 {
  %1 = alloca i32, align 4
  %2 = alloca i32, align 4
  %3 = alloca i32, align 4
  %4 = alloca i32, align 4
  %5 = alloca i32, align 4
  %6 = alloca [2000 x i32], align 16
  store i32 0, i32* %1, align 4
  %7 = call i32 (i8*, ...) @__isoc99_scanf(i8* getelementptr inbounds ([3 x i8], [3 x i8]* @.str, i64 0, i64 0), i32* %2)
  %8 = getelementptr inbounds [2000 x i32], [2000 x i32]* %6, i64 0, i64 0
  store i32 2, i32* %8, align 16
  %9 = getelementptr inbounds [2000 x i32], [2000 x i32]* %6, i64 0, i64 1
  store i32 3, i32* %9, align 4
  store i32 1, i32* %5, align 4
  store i32 3, i32* %4, align 4
  br label %10

10:                                               ; preds = %59, %0
  %11 = load i32, i32* %4, align 4
  %12 = icmp slt i32 %11, 10000
  br i1 %12, label %13, label %62

13:                                               ; preds = %10
  store i32 0, i32* %3, align 4
  br label %14

14:                                               ; preds = %36, %13
  %15 = load i32, i32* %3, align 4
  %16 = sext i32 %15 to i64
  %17 = getelementptr inbounds [2000 x i32], [2000 x i32]* %6, i64 0, i64 %16
  %18 = load i32, i32* %17, align 4
  %19 = load i32, i32* %3, align 4
  %20 = sext i32 %19 to i64
  %21 = getelementptr inbounds [2000 x i32], [2000 x i32]* %6, i64 0, i64 %20
  %22 = load i32, i32* %21, align 4
  %23 = mul nsw i32 %18, %22
  %24 = load i32, i32* %4, align 4
  %25 = icmp slt i32 %23, %24
  br i1 %25, label %26, label %39

26:                                               ; preds = %14
  %27 = load i32, i32* %4, align 4
  %28 = load i32, i32* %3, align 4
  %29 = sext i32 %28 to i64
  %30 = getelementptr inbounds [2000 x i32], [2000 x i32]* %6, i64 0, i64 %29
  %31 = load i32, i32* %30, align 4
  %32 = srem i32 %27, %31
  %33 = icmp eq i32 %32, 0
  br i1 %33, label %34, label %35

34:                                               ; preds = %26
  br label %39

35:                                               ; preds = %26
  br label %36

36:                                               ; preds = %35
  %37 = load i32, i32* %3, align 4
  %38 = add nsw i32 %37, 1
  store i32 %38, i32* %3, align 4
  br label %14

39:                                               ; preds = %34, %14
  %40 = load i32, i32* %3, align 4
  %41 = sext i32 %40 to i64
  %42 = getelementptr inbounds [2000 x i32], [2000 x i32]* %6, i64 0, i64 %41
  %43 = load i32, i32* %42, align 4
  %44 = load i32, i32* %3, align 4
  %45 = sext i32 %44 to i64
  %46 = getelementptr inbounds [2000 x i32], [2000 x i32]* %6, i64 0, i64 %45
  %47 = load i32, i32* %46, align 4
  %48 = mul nsw i32 %43, %47
  %49 = load i32, i32* %4, align 4
  %50 = icmp sgt i32 %48, %49
  br i1 %50, label %51, label %58

51:                                               ; preds = %39
  %52 = load i32, i32* %4, align 4
  %53 = load i32, i32* %5, align 4
  %54 = sext i32 %53 to i64
  %55 = getelementptr inbounds [2000 x i32], [2000 x i32]* %6, i64 0, i64 %54
  store i32 %52, i32* %55, align 4
  %56 = load i32, i32* %5, align 4
  %57 = add nsw i32 %56, 1
  store i32 %57, i32* %5, align 4
  br label %58

58:                                               ; preds = %51, %39
  br label %59

59:                                               ; preds = %58
  %60 = load i32, i32* %4, align 4
  %61 = add nsw i32 %60, 1
  store i32 %61, i32* %4, align 4
  br label %10

62:                                               ; preds = %10
  store i32 0, i32* %4, align 4
  br label %63

63:                                               ; preds = %106, %62
  %64 = load i32, i32* %4, align 4
  %65 = sext i32 %64 to i64
  %66 = getelementptr inbounds [2000 x i32], [2000 x i32]* %6, i64 0, i64 %65
  %67 = load i32, i32* %66, align 4
  %68 = load i32, i32* %2, align 4
  %69 = sdiv i32 %68, 2
  %70 = icmp sle i32 %67, %69
  br i1 %70, label %71, label %109

71:                                               ; preds = %63
  store i32 0, i32* %3, align 4
  br label %72

72:                                               ; preds = %102, %71
  %73 = load i32, i32* %3, align 4
  %74 = sext i32 %73 to i64
  %75 = getelementptr inbounds [2000 x i32], [2000 x i32]* %6, i64 0, i64 %74
  %76 = load i32, i32* %75, align 4
  %77 = load i32, i32* %2, align 4
  %78 = icmp sle i32 %76, %77
  br i1 %78, label %79, label %105

79:                                               ; preds = %72
  %80 = load i32, i32* %2, align 4
  %81 = load i32, i32* %3, align 4
  %82 = sext i32 %81 to i64
  %83 = getelementptr inbounds [2000 x i32], [2000 x i32]* %6, i64 0, i64 %82
  %84 = load i32, i32* %83, align 4
  %85 = load i32, i32* %4, align 4
  %86 = sext i32 %85 to i64
  %87 = getelementptr inbounds [2000 x i32], [2000 x i32]* %6, i64 0, i64 %86
  %88 = load i32, i32* %87, align 4
  %89 = add nsw i32 %84, %88
  %90 = icmp eq i32 %80, %89
  br i1 %90, label %91, label %101

91:                                               ; preds = %79
  %92 = load i32, i32* %4, align 4
  %93 = sext i32 %92 to i64
  %94 = getelementptr inbounds [2000 x i32], [2000 x i32]* %6, i64 0, i64 %93
  %95 = load i32, i32* %94, align 4
  %96 = load i32, i32* %3, align 4
  %97 = sext i32 %96 to i64
  %98 = getelementptr inbounds [2000 x i32], [2000 x i32]* %6, i64 0, i64 %97
  %99 = load i32, i32* %98, align 4
  %100 = call i32 (i8*, ...) @printf(i8* getelementptr inbounds ([7 x i8], [7 x i8]* @.str.1, i64 0, i64 0), i32 %95, i32 %99)
  br label %101

101:                                              ; preds = %91, %79
  br label %102

102:                                              ; preds = %101
  %103 = load i32, i32* %3, align 4
  %104 = add nsw i32 %103, 1
  store i32 %104, i32* %3, align 4
  br label %72

105:                                              ; preds = %72
  br label %106

106:                                              ; preds = %105
  %107 = load i32, i32* %4, align 4
  %108 = add nsw i32 %107, 1
  store i32 %108, i32* %4, align 4
  br label %63

109:                                              ; preds = %63
  ret i32 0
}

declare dso_local i32 @__isoc99_scanf(i8*, ...) #1

declare dso_local i32 @printf(i8*, ...) #1


!llvm.module.flags = !{!0}
!llvm.ident = !{!1}

!0 = !{i32 1, !"wchar_size", i32 4}
!1 = !{!"clang version 10.0.0-4ubuntu1 "}
